target datalayout = "e-m:e-p270:32:32-p271:32:32-p272:64:64-i64:64-i128:128-f80:128-n8:16:32:64-S128"
target triple = "x86_64-pc-linux-gnu"

%struct.mbedtls_mpi = type { i32, i64, ptr }

; Function Attrs: mustprogress uwtable
define hidden i32 @mbedtls_rsa_deduce_crt(ptr noundef %0, ptr noundef %1, ptr noundef %2, ptr noundef %3, ptr noundef %4, ptr noundef %5) #0 {
  %7 = alloca ptr, align 8
  %8 = alloca ptr, align 8
  %9 = alloca ptr, align 8
  %10 = alloca ptr, align 8
  %11 = alloca ptr, align 8
  %12 = alloca ptr, align 8
  %13 = alloca i32, align 4
  %14 = alloca %struct.mbedtls_mpi, align 8
  store ptr %0, ptr %7, align 8, !tbaa !3
  store ptr %1, ptr %8, align 8, !tbaa !3
  store ptr %2, ptr %9, align 8, !tbaa !3
  store ptr %3, ptr %10, align 8, !tbaa !3
  store ptr %4, ptr %11, align 8, !tbaa !3
  store ptr %5, ptr %12, align 8, !tbaa !3
  call void @llvm.lifetime.start.p0(i64 4, ptr %13) #4
  store i32 0, ptr %13, align 4, !tbaa !8
  call void @llvm.lifetime.start.p0(i64 24, ptr %14) #4
  call void @mbedtls_mpi_init(ptr noundef %14)
  %15 = load ptr, ptr %10, align 8, !tbaa !3
  %16 = icmp ne ptr %15, null
  br i1 %16, label %17, label %35

17:                                               ; preds = %6
  br label %18

18:                                               ; preds = %17
  %19 = load ptr, ptr %7, align 8, !tbaa !3
  %20 = call i32 @mbedtls_mpi_sub_int(ptr noundef %14, ptr noundef %19, i64 noundef 1)
  store i32 %20, ptr %13, align 4, !tbaa !8
  %21 = icmp ne i32 %20, 0
  br i1 %21, label %22, label %23

22:                                               ; preds = %18
  br label %71

23:                                               ; preds = %18
  br label %24

24:                                               ; preds = %23
  br label %25

25:                                               ; preds = %24
  br label %26

26:                                               ; preds = %25
  %27 = load ptr, ptr %10, align 8, !tbaa !3
  %28 = load ptr, ptr %9, align 8, !tbaa !3
  %29 = call i32 @mbedtls_mpi_mod_mpi(ptr noundef %27, ptr noundef %28, ptr noundef %14)
  store i32 %29, ptr %13, align 4, !tbaa !8
  %30 = icmp ne i32 %29, 0
  br i1 %30, label %31, label %32

31:                                               ; preds = %26
  br label %71

32:                                               ; preds = %26
  br label %33

33:                                               ; preds = %32
  br label %34

34:                                               ; preds = %33
  br label %35

35:                                               ; preds = %34, %6
  %36 = load ptr, ptr %11, align 8, !tbaa !3
  %37 = icmp ne ptr %36, null
  br i1 %37, label %38, label %56

38:                                               ; preds = %35
  br label %39

39:                                               ; preds = %38
  %40 = load ptr, ptr %8, align 8, !tbaa !3
  %41 = call i32 @mbedtls_mpi_sub_int(ptr noundef %14, ptr noundef %40, i64 noundef 1)
  store i32 %41, ptr %13, align 4, !tbaa !8
  %42 = icmp ne i32 %41, 0
  br i1 %42, label %43, label %44

43:                                               ; preds = %39
  br label %71

44:                                               ; preds = %39
  br label %45

45:                                               ; preds = %44
  br label %46

46:                                               ; preds = %45
  br label %47

47:                                               ; preds = %46
  %48 = load ptr, ptr %11, align 8, !tbaa !3
  %49 = load ptr, ptr %9, align 8, !tbaa !3
  %50 = call i32 @mbedtls_mpi_mod_mpi(ptr noundef %48, ptr noundef %49, ptr noundef %14)
  store i32 %50, ptr %13, align 4, !tbaa !8
  %51 = icmp ne i32 %50, 0
  br i1 %51, label %52, label %53

52:                                               ; preds = %47
  br label %71

53:                                               ; preds = %47
  br label %54

54:                                               ; preds = %53
  br label %55

55:                                               ; preds = %54
  br label %56

56:                                               ; preds = %55, %35
  %57 = load ptr, ptr %12, align 8, !tbaa !3
  %58 = icmp ne ptr %57, null
  br i1 %58, label %59, label %70

59:                                               ; preds = %56
  br label %60

60:                                               ; preds = %59
  %61 = load ptr, ptr %12, align 8, !tbaa !3
  %62 = load ptr, ptr %8, align 8, !tbaa !3
  %63 = load ptr, ptr %7, align 8, !tbaa !3
  %64 = call i32 @mbedtls_mpi_inv_mod(ptr noundef %61, ptr noundef %62, ptr noundef %63)
  store i32 %64, ptr %13, align 4, !tbaa !8
  %65 = icmp ne i32 %64, 0
  br i1 %65, label %66, label %67

66:                                               ; preds = %60
  br label %71

67:                                               ; preds = %60
  br label %68

68:                                               ; preds = %67
  br label %69

69:                                               ; preds = %68
  br label %70

70:                                               ; preds = %69, %56
  br label %71

71:                                               ; preds = %70, %66, %52, %43, %31, %22
  call void @mbedtls_mpi_free(ptr noundef %14)
  %72 = load i32, ptr %13, align 4, !tbaa !8
  call void @llvm.lifetime.end.p0(i64 24, ptr %14) #4
  call void @llvm.lifetime.end.p0(i64 4, ptr %13) #4
  ret i32 %72
}