; Function Attrs: mustprogress uwtable
define hidden i32 @mbedtls_rsa_deduce_crt(ptr noundef %0, ptr noundef %1, ptr noundef %2, ptr noundef %3, ptr noundef %4, ptr noundef %5) local_unnamed_addr #0 {
  %7 = alloca %struct.mbedtls_mpi, align 8
  call void @llvm.lifetime.start.p0(i64 24, ptr nonnull %7) #3
  call void @mbedtls_mpi_init(ptr noundef nonnull %7)
  %.not = icmp eq ptr %3, null
  br i1 %.not, label %12, label %8

8:                                                ; preds = %6
  %9 = call i32 @mbedtls_mpi_sub_int(ptr noundef nonnull %7, ptr noundef %0, i64 noundef 1)
  %.not19 = icmp eq i32 %9, 0
  br i1 %.not19, label %10, label %22

10:                                               ; preds = %8
  %11 = call i32 @mbedtls_mpi_mod_mpi(ptr noundef nonnull %3, ptr noundef %2, ptr noundef nonnull %7)
  %.not20 = icmp eq i32 %11, 0
  br i1 %.not20, label %12, label %22

12:                                               ; preds = %10, %6
  %.not21 = icmp eq ptr %4, null
  br i1 %.not21, label %19, label %13

13:                                               ; preds = %12
  %14 = call i32 @mbedtls_mpi_sub_int(ptr noundef nonnull %7, ptr noundef %1, i64 noundef 1)
  %.not22 = icmp eq i32 %14, 0
  br i1 %.not22, label %15, label %22

15:                                               ; preds = %13
  %16 = call i32 @mbedtls_mpi_mod_mpi(ptr noundef nonnull %4, ptr noundef %2, ptr noundef nonnull %7)
  %17 = icmp eq i32 %16, 0
  %18 = icmp ne ptr %5, null
  %or.cond = and i1 %18, %17
  br i1 %or.cond, label %20, label %22

19:                                               ; preds = %12
  %.old1.not = icmp eq ptr %5, null
  br i1 %.old1.not, label %22, label %20

20:                                               ; preds = %15, %19
  %21 = call i32 @mbedtls_mpi_inv_mod(ptr noundef nonnull %5, ptr noundef %1, ptr noundef %0)
  br label %22

22:                                               ; preds = %20, %19, %15, %13, %10, %8
  %.1 = phi i32 [ %9, %8 ], [ %11, %10 ], [ %14, %13 ], [ %21, %20 ], [ %16, %15 ], [ 0, %19 ]
  call void @mbedtls_mpi_free(ptr noundef nonnull %7)
  call void @llvm.lifetime.end.p0(i64 24, ptr nonnull %7) #3
  ret i32 %.1
}